(lp0
ccopy_reg
_reconstructor
p1
(calunos
alunos
p2
c__builtin__
tuple
p3
(S'i12900'
p4
S'Bruno'
p5
tp6
tp7
Rp8
ccollections
OrderedDict
p9
((lp10
(lp11
S'numero'
p12
ag4
aa(lp13
S'nome'
p14
ag5
aatp15
Rp16
bag1
(g2
g3
(S'l901'
p17
S'Sala'
p18
tp19
tp20
Rp21
g9
((lp22
(lp23
g12
ag17
aa(lp24
g14
ag18
aatp25
Rp26
ba.