(lp0
ccopy_reg
_reconstructor
p1
(calunos
alunos
p2
c__builtin__
tuple
p3
(S'i12048'
p4
S'Bruno Gabriel'
p5
tp6
tp7
Rp8
ccollections
OrderedDict
p9
((lp10
(lp11
S'numero'
p12
ag4
aa(lp13
S'nome'
p14
ag5
aatp15
Rp16
ba.