(lp0
ccopy_reg
_reconstructor
p1
(c__main__
presencaReg
p2
c__builtin__
tuple
p3
(g1
(calunos
alunos
p4
g3
(S'i12048'
p5
S'Bruno Gabriel'
p6
tp7
tp8
Rp9
ccollections
OrderedDict
p10
((lp11
(lp12
S'numero'
p13
ag5
aa(lp14
S'nome'
p15
ag6
aatp16
Rp17
bS'Lab1'
p18
S'SEG'
p19
S'8h30'
p20
S'LP'
p21
tp22
tp23
Rp24
g10
((lp25
(lp26
S'codAluno'
p27
ag9
aa(lp28
S'sala'
p29
ag18
aa(lp30
S'dia'
p31
ag19
aa(lp32
S'hora'
p33
ag20
aa(lp34
S'disciplina'
p35
ag21
aatp36
Rp37
ba.