(dp1
S'project_paths'
p2
(lp3
VC:\u005cUsers\u005ci12048\u005cDocuments\u005cGitHub\u005c02\u005cModulo9\u005cProjeto
p4
aVC:\u005cUsers\u005ci12048\u005cDocuments\u005cGitHub\u005c02\u005cModulo9\u005cprojeto_new
p5
asS'name'
p6
VModulo9
p7
s.